target datalayout = "e-m:e-p270:32:32-p271:32:32-p272:64:64-i64:64-i128:128-f80:128-n8:16:32:64-S128"
target triple = "x86_64-pc-linux-gnu"

%struct._packet_info = type { ptr, ptr, i32, i32, %struct.nstime_t, %struct.nstime_t, %struct.nstime_t, i8, ptr, ptr, ptr, ptr, %struct._address, %struct._address, %struct._address, %struct._address, %struct._address, %struct._address, i32, ptr, i8, [3 x i8], %struct.anon, i32, i32, i32, i32, ptr, i8, ptr, ptr, i16, i16, i32, i32, i16, i32, i32, ptr, ptr, ptr, i8, i8, i16, i16, i16, i32, i16, i16, ptr, ptr, ptr, ptr, ptr, i32, i32 }
%struct.nstime_t = type { i64, i32 }
%struct._address = type { i32, i32, ptr, ptr }
%struct.anon = type { i8, [3 x i8] }

@hf_opa_KDETH = internal global i32 0, align 4
@ett_kdeth = internal global i32 0, align 4
@.str.330 = private unnamed_addr constant [8 x i8] c"KDETH: \00", align 1
@_opa_KDETH_word1 = internal constant [8 x ptr] [ptr @hf_opa_KDETH_kver, ptr @hf_opa_KDETH_sh, ptr @hf_opa_KDETH_intr, ptr @hf_opa_KDETH_tidctrl, ptr @hf_opa_KDETH_tid, ptr @hf_opa_KDETH_offset_mode, ptr @hf_opa_KDETH_offset, ptr null], align 16
@_opa_KDETH_word2 = internal constant [3 x ptr] [ptr @hf_opa_KDETH_hcrc, ptr @hf_opa_KDETH_j_key, ptr null], align 16

; Function Attrs: null_pointer_is_valid sspstrong uwtable
define internal void @parse_KDETH(ptr noundef %0, ptr noundef %1, ptr noundef %2, ptr noundef %3) #0 {
  %5 = alloca ptr, align 8
  %6 = alloca ptr, align 8
  %7 = alloca ptr, align 8
  %8 = alloca ptr, align 8
  %9 = alloca i32, align 4
  %10 = alloca ptr, align 8
  %11 = alloca ptr, align 8
  store ptr %0, ptr %5, align 8
  store ptr %1, ptr %6, align 8
  store ptr %2, ptr %7, align 8
  store ptr %3, ptr %8, align 8
  call void @llvm.lifetime.start.p0(i64 4, ptr %9) #8
  %12 = load ptr, ptr %8, align 8
  %13 = load i32, ptr %12, align 4
  store i32 %13, ptr %9, align 4
  call void @llvm.lifetime.start.p0(i64 8, ptr %10) #8
  call void @llvm.lifetime.start.p0(i64 8, ptr %11) #8
  %14 = load ptr, ptr %6, align 8
  %15 = getelementptr inbounds nuw %struct._packet_info, ptr %14, i32 0, i32 1
  %16 = load ptr, ptr %15, align 8
  call void @col_append_str(ptr noundef %16, i32 noundef 25, ptr noundef @.str.330)
  %17 = load ptr, ptr %7, align 8
  %18 = load i32, ptr @hf_opa_KDETH, align 4
  %19 = load ptr, ptr %5, align 8
  %20 = load i32, ptr %9, align 4
  %21 = call ptr @proto_tree_add_item(ptr noundef %17, i32 noundef %18, ptr noundef %19, i32 noundef %20, i32 noundef 8, i32 noundef 0)
  store ptr %21, ptr %10, align 8
  %22 = load ptr, ptr %10, align 8
  %23 = load i32, ptr @ett_kdeth, align 4
  %24 = call ptr @proto_item_add_subtree(ptr noundef %22, i32 noundef %23)
  store ptr %24, ptr %11, align 8
  %25 = load ptr, ptr %11, align 8
  %26 = load ptr, ptr %5, align 8
  %27 = load i32, ptr %9, align 4
  call void @proto_tree_add_bitmask_list(ptr noundef %25, ptr noundef %26, i32 noundef %27, i32 noundef 4, ptr noundef @_opa_KDETH_word1, i32 noundef -2147483648)
  %28 = load i32, ptr %9, align 4
  %29 = add i32 %28, 4
  store i32 %29, ptr %9, align 4
  %30 = load ptr, ptr %11, align 8
  %31 = load ptr, ptr %5, align 8
  %32 = load i32, ptr %9, align 4
  call void @proto_tree_add_bitmask_list(ptr noundef %30, ptr noundef %31, i32 noundef %32, i32 noundef 4, ptr noundef @_opa_KDETH_word2, i32 noundef -2147483648)
  %33 = load i32, ptr %9, align 4
  %34 = add i32 %33, 4
  store i32 %34, ptr %9, align 4
  %35 = load i32, ptr %9, align 4
  %36 = load ptr, ptr %8, align 8
  store i32 %35, ptr %36, align 4
  call void @llvm.lifetime.end.p0(i64 8, ptr %11) #8
  call void @llvm.lifetime.end.p0(i64 8, ptr %10) #8
  call void @llvm.lifetime.end.p0(i64 4, ptr %9) #8
  ret void
}