; Function Attrs: null_pointer_is_valid sspstrong uwtable
define internal fastcc void @parse_KDETH(ptr noundef %0, ptr %.8.val, ptr noundef %1, ptr noundef captures(none) %2) unnamed_addr #0 {
  %4 = load i32, ptr %2, align 4
  tail call void @col_append_str(ptr noundef %.8.val, i32 noundef 25, ptr noundef nonnull @.str.330)
  %5 = load i32, ptr @hf_opa_KDETH, align 4
  %6 = tail call ptr @proto_tree_add_item(ptr noundef %1, i32 noundef %5, ptr noundef %0, i32 noundef %4, i32 noundef 8, i32 noundef 0)
  %7 = load i32, ptr @ett_kdeth, align 4
  %8 = tail call ptr @proto_item_add_subtree(ptr noundef %6, i32 noundef %7)
  tail call void @proto_tree_add_bitmask_list(ptr noundef %8, ptr noundef %0, i32 noundef %4, i32 noundef 4, ptr noundef nonnull @_opa_KDETH_word1, i32 noundef -2147483648)
  %9 = add i32 %4, 4
  tail call void @proto_tree_add_bitmask_list(ptr noundef %8, ptr noundef %0, i32 noundef %9, i32 noundef 4, ptr noundef nonnull @_opa_KDETH_word2, i32 noundef -2147483648)
  %10 = add i32 %4, 8
  store i32 %10, ptr %2, align 4
  ret void
}